target datalayout = "e-m:e-p270:32:32-p271:32:32-p272:64:64-i64:64-i128:128-f80:128-n8:16:32:64-S128"
target triple = "x86_64-pc-linux-gnu"

%struct.jpeg_decompress_struct = type { ptr, ptr, ptr, ptr, i32, i32, ptr, i32, i32, i32, i32, i32, i32, i32, double, i32, i32, i32, i32, i32, i32, i32, i32, i32, i32, i32, i32, i32, i32, i32, i32, i32, i32, ptr, i32, i32, i32, i32, i32, ptr, [4 x ptr], [4 x ptr], [4 x ptr], i32, ptr, i32, i32, [16 x i8], [16 x i8], [16 x i8], i32, i32, i8, i8, i8, i16, i16, i32, i8, i32, ptr, i32, i32, i32, i32, ptr, i32, [4 x ptr], i32, i32, i32, [10 x i32], i32, i32, i32, i32, i32, ptr, ptr, ptr, ptr, ptr, ptr, ptr, ptr, ptr, ptr, ptr }
%struct.jpeg_progress_mgr = type { ptr, i64, i64, i32, i32 }
%struct.jpeg_error_mgr = type { ptr, ptr, ptr, ptr, ptr, i32, %union.anon, i32, i64, ptr, i32, ptr, i32, i32 }
%union.anon = type { [8 x i32], [48 x i8] }
%struct.jpeg_decomp_master = type { ptr, ptr, i32, i32, i32, i32, [10 x i32], [10 x i32], i32, i32, ptr }
%struct.jpeg_d_main_controller = type { ptr, ptr, ptr, ptr }

; Function Attrs: nounwind uwtable
define i32 @jpeg_read_scanlines(ptr noundef %0, ptr noundef %1, i32 noundef %2) #0 {
  %4 = alloca i32, align 4
  %5 = alloca ptr, align 8
  %6 = alloca ptr, align 8
  %7 = alloca i32, align 4
  %8 = alloca i32, align 4
  %9 = alloca i32, align 4
  store ptr %0, ptr %5, align 8, !tbaa !3
  store ptr %1, ptr %6, align 8, !tbaa !95
  store i32 %2, ptr %7, align 4, !tbaa !41
  call void @llvm.lifetime.start.p0(i64 4, ptr %8) #4
  %10 = load ptr, ptr %5, align 8, !tbaa !3
  %11 = getelementptr inbounds nuw %struct.jpeg_decompress_struct, ptr %10, i32 0, i32 77
  %12 = load ptr, ptr %11, align 8, !tbaa !52
  %13 = getelementptr inbounds nuw %struct.jpeg_decomp_master, ptr %12, i32 0, i32 3
  %14 = load i32, ptr %13, align 4, !tbaa !71
  %15 = icmp ne i32 %14, 0
  br i1 %15, label %16, label %46

16:                                               ; preds = %3
  %17 = load ptr, ptr %5, align 8, !tbaa !3
  %18 = getelementptr inbounds nuw %struct.jpeg_decompress_struct, ptr %17, i32 0, i32 43
  %19 = load i32, ptr %18, align 8, !tbaa !58
  %20 = icmp sgt i32 %19, 8
  br i1 %20, label %26, label %21

21:                                               ; preds = %16
  %22 = load ptr, ptr %5, align 8, !tbaa !3
  %23 = getelementptr inbounds nuw %struct.jpeg_decompress_struct, ptr %22, i32 0, i32 43
  %24 = load i32, ptr %23, align 8, !tbaa !58
  %25 = icmp slt i32 %24, 2
  br i1 %25, label %26, label %45

26:                                               ; preds = %21, %16
  %27 = load ptr, ptr %5, align 8, !tbaa !3
  %28 = getelementptr inbounds nuw %struct.jpeg_decompress_struct, ptr %27, i32 0, i32 0
  %29 = load ptr, ptr %28, align 8, !tbaa !47
  %30 = getelementptr inbounds nuw %struct.jpeg_error_mgr, ptr %29, i32 0, i32 5
  store i32 15, ptr %30, align 8, !tbaa !48
  %31 = load ptr, ptr %5, align 8, !tbaa !3
  %32 = getelementptr inbounds nuw %struct.jpeg_decompress_struct, ptr %31, i32 0, i32 43
  %33 = load i32, ptr %32, align 8, !tbaa !58
  %34 = load ptr, ptr %5, align 8, !tbaa !3
  %35 = getelementptr inbounds nuw %struct.jpeg_decompress_struct, ptr %34, i32 0, i32 0
  %36 = load ptr, ptr %35, align 8, !tbaa !47
  %37 = getelementptr inbounds nuw %struct.jpeg_error_mgr, ptr %36, i32 0, i32 6
  %38 = getelementptr inbounds [8 x i32], ptr %37, i64 0, i64 0
  store i32 %33, ptr %38, align 4, !tbaa !50
  %39 = load ptr, ptr %5, align 8, !tbaa !3
  %40 = getelementptr inbounds nuw %struct.jpeg_decompress_struct, ptr %39, i32 0, i32 0
  %41 = load ptr, ptr %40, align 8, !tbaa !47
  %42 = getelementptr inbounds nuw %struct.jpeg_error_mgr, ptr %41, i32 0, i32 0
  %43 = load ptr, ptr %42, align 8, !tbaa !51
  %44 = load ptr, ptr %5, align 8, !tbaa !3
  call void %43(ptr noundef %44)
  br label %45

45:                                               ; preds = %26, %21
  br label %71

46:                                               ; preds = %3
  %47 = load ptr, ptr %5, align 8, !tbaa !3
  %48 = getelementptr inbounds nuw %struct.jpeg_decompress_struct, ptr %47, i32 0, i32 43
  %49 = load i32, ptr %48, align 8, !tbaa !58
  %50 = icmp ne i32 %49, 8
  br i1 %50, label %51, label %70

51:                                               ; preds = %46
  %52 = load ptr, ptr %5, align 8, !tbaa !3
  %53 = getelementptr inbounds nuw %struct.jpeg_decompress_struct, ptr %52, i32 0, i32 0
  %54 = load ptr, ptr %53, align 8, !tbaa !47
  %55 = getelementptr inbounds nuw %struct.jpeg_error_mgr, ptr %54, i32 0, i32 5
  store i32 15, ptr %55, align 8, !tbaa !48
  %56 = load ptr, ptr %5, align 8, !tbaa !3
  %57 = getelementptr inbounds nuw %struct.jpeg_decompress_struct, ptr %56, i32 0, i32 43
  %58 = load i32, ptr %57, align 8, !tbaa !58
  %59 = load ptr, ptr %5, align 8, !tbaa !3
  %60 = getelementptr inbounds nuw %struct.jpeg_decompress_struct, ptr %59, i32 0, i32 0
  %61 = load ptr, ptr %60, align 8, !tbaa !47
  %62 = getelementptr inbounds nuw %struct.jpeg_error_mgr, ptr %61, i32 0, i32 6
  %63 = getelementptr inbounds [8 x i32], ptr %62, i64 0, i64 0
  store i32 %58, ptr %63, align 4, !tbaa !50
  %64 = load ptr, ptr %5, align 8, !tbaa !3
  %65 = getelementptr inbounds nuw %struct.jpeg_decompress_struct, ptr %64, i32 0, i32 0
  %66 = load ptr, ptr %65, align 8, !tbaa !47
  %67 = getelementptr inbounds nuw %struct.jpeg_error_mgr, ptr %66, i32 0, i32 0
  %68 = load ptr, ptr %67, align 8, !tbaa !51
  %69 = load ptr, ptr %5, align 8, !tbaa !3
  call void %68(ptr noundef %69)
  br label %70

70:                                               ; preds = %51, %46
  br label %71

71:                                               ; preds = %70, %45
  %72 = load ptr, ptr %5, align 8, !tbaa !3
  %73 = getelementptr inbounds nuw %struct.jpeg_decompress_struct, ptr %72, i32 0, i32 5
  %74 = load i32, ptr %73, align 4, !tbaa !8
  %75 = icmp ne i32 %74, 205
  br i1 %75, label %76, label %95

76:                                               ; preds = %71
  %77 = load ptr, ptr %5, align 8, !tbaa !3
  %78 = getelementptr inbounds nuw %struct.jpeg_decompress_struct, ptr %77, i32 0, i32 0
  %79 = load ptr, ptr %78, align 8, !tbaa !47
  %80 = getelementptr inbounds nuw %struct.jpeg_error_mgr, ptr %79, i32 0, i32 5
  store i32 20, ptr %80, align 8, !tbaa !48
  %81 = load ptr, ptr %5, align 8, !tbaa !3
  %82 = getelementptr inbounds nuw %struct.jpeg_decompress_struct, ptr %81, i32 0, i32 5
  %83 = load i32, ptr %82, align 4, !tbaa !8
  %84 = load ptr, ptr %5, align 8, !tbaa !3
  %85 = getelementptr inbounds nuw %struct.jpeg_decompress_struct, ptr %84, i32 0, i32 0
  %86 = load ptr, ptr %85, align 8, !tbaa !47
  %87 = getelementptr inbounds nuw %struct.jpeg_error_mgr, ptr %86, i32 0, i32 6
  %88 = getelementptr inbounds [8 x i32], ptr %87, i64 0, i64 0
  store i32 %83, ptr %88, align 4, !tbaa !50
  %89 = load ptr, ptr %5, align 8, !tbaa !3
  %90 = getelementptr inbounds nuw %struct.jpeg_decompress_struct, ptr %89, i32 0, i32 0
  %91 = load ptr, ptr %90, align 8, !tbaa !47
  %92 = getelementptr inbounds nuw %struct.jpeg_error_mgr, ptr %91, i32 0, i32 0
  %93 = load ptr, ptr %92, align 8, !tbaa !51
  %94 = load ptr, ptr %5, align 8, !tbaa !3
  call void %93(ptr noundef %94)
  br label %95

95:                                               ; preds = %76, %71
  %96 = load ptr, ptr %5, align 8, !tbaa !3
  %97 = getelementptr inbounds nuw %struct.jpeg_decompress_struct, ptr %96, i32 0, i32 34
  %98 = load i32, ptr %97, align 8, !tbaa !55
  %99 = load ptr, ptr %5, align 8, !tbaa !3
  %100 = getelementptr inbounds nuw %struct.jpeg_decompress_struct, ptr %99, i32 0, i32 28
  %101 = load i32, ptr %100, align 4, !tbaa !57
  %102 = icmp uge i32 %98, %101
  br i1 %102, label %103, label %114

103:                                              ; preds = %95
  %104 = load ptr, ptr %5, align 8, !tbaa !3
  %105 = getelementptr inbounds nuw %struct.jpeg_decompress_struct, ptr %104, i32 0, i32 0
  %106 = load ptr, ptr %105, align 8, !tbaa !47
  %107 = getelementptr inbounds nuw %struct.jpeg_error_mgr, ptr %106, i32 0, i32 5
  store i32 123, ptr %107, align 8, !tbaa !48
  %108 = load ptr, ptr %5, align 8, !tbaa !3
  %109 = getelementptr inbounds nuw %struct.jpeg_decompress_struct, ptr %108, i32 0, i32 0
  %110 = load ptr, ptr %109, align 8, !tbaa !47
  %111 = getelementptr inbounds nuw %struct.jpeg_error_mgr, ptr %110, i32 0, i32 1
  %112 = load ptr, ptr %111, align 8, !tbaa !96
  %113 = load ptr, ptr %5, align 8, !tbaa !3
  call void %112(ptr noundef %113, i32 noundef -1)
  store i32 0, ptr %4, align 4
  store i32 1, ptr %9, align 4
  br label %183

114:                                              ; preds = %95
  %115 = load ptr, ptr %5, align 8, !tbaa !3
  %116 = getelementptr inbounds nuw %struct.jpeg_decompress_struct, ptr %115, i32 0, i32 2
  %117 = load ptr, ptr %116, align 8, !tbaa !36
  %118 = icmp ne ptr %117, null
  br i1 %118, label %119, label %142

119:                                              ; preds = %114
  %120 = load ptr, ptr %5, align 8, !tbaa !3
  %121 = getelementptr inbounds nuw %struct.jpeg_decompress_struct, ptr %120, i32 0, i32 34
  %122 = load i32, ptr %121, align 8, !tbaa !55
  %123 = zext i32 %122 to i64
  %124 = load ptr, ptr %5, align 8, !tbaa !3
  %125 = getelementptr inbounds nuw %struct.jpeg_decompress_struct, ptr %124, i32 0, i32 2
  %126 = load ptr, ptr %125, align 8, !tbaa !36
  %127 = getelementptr inbounds nuw %struct.jpeg_progress_mgr, ptr %126, i32 0, i32 1
  store i64 %123, ptr %127, align 8, !tbaa !42
  %128 = load ptr, ptr %5, align 8, !tbaa !3
  %129 = getelementptr inbounds nuw %struct.jpeg_decompress_struct, ptr %128, i32 0, i32 28
  %130 = load i32, ptr %129, align 4, !tbaa !57
  %131 = zext i32 %130 to i64
  %132 = load ptr, ptr %5, align 8, !tbaa !3
  %133 = getelementptr inbounds nuw %struct.jpeg_decompress_struct, ptr %132, i32 0, i32 2
  %134 = load ptr, ptr %133, align 8, !tbaa !36
  %135 = getelementptr inbounds nuw %struct.jpeg_progress_mgr, ptr %134, i32 0, i32 2
  store i64 %131, ptr %135, align 8, !tbaa !43
  %136 = load ptr, ptr %5, align 8, !tbaa !3
  %137 = getelementptr inbounds nuw %struct.jpeg_decompress_struct, ptr %136, i32 0, i32 2
  %138 = load ptr, ptr %137, align 8, !tbaa !36
  %139 = getelementptr inbounds nuw %struct.jpeg_progress_mgr, ptr %138, i32 0, i32 0
  %140 = load ptr, ptr %139, align 8, !tbaa !37
  %141 = load ptr, ptr %5, align 8, !tbaa !3
  call void %140(ptr noundef %141)
  br label %142

142:                                              ; preds = %119, %114
  store i32 0, ptr %8, align 4, !tbaa !41
  %143 = load ptr, ptr %5, align 8, !tbaa !3
  %144 = getelementptr inbounds nuw %struct.jpeg_decompress_struct, ptr %143, i32 0, i32 78
  %145 = load ptr, ptr %144, align 8, !tbaa !59
  %146 = getelementptr inbounds nuw %struct.jpeg_d_main_controller, ptr %145, i32 0, i32 1
  %147 = load ptr, ptr %146, align 8, !tbaa !60
  %148 = icmp eq ptr %147, null
  br i1 %148, label %149, label %168

149:                                              ; preds = %142
  %150 = load ptr, ptr %5, align 8, !tbaa !3
  %151 = getelementptr inbounds nuw %struct.jpeg_decompress_struct, ptr %150, i32 0, i32 0
  %152 = load ptr, ptr %151, align 8, !tbaa !47
  %153 = getelementptr inbounds nuw %struct.jpeg_error_mgr, ptr %152, i32 0, i32 5
  store i32 15, ptr %153, align 8, !tbaa !48
  %154 = load ptr, ptr %5, align 8, !tbaa !3
  %155 = getelementptr inbounds nuw %struct.jpeg_decompress_struct, ptr %154, i32 0, i32 43
  %156 = load i32, ptr %155, align 8, !tbaa !58
  %157 = load ptr, ptr %5, align 8, !tbaa !3
  %158 = getelementptr inbounds nuw %struct.jpeg_decompress_struct, ptr %157, i32 0, i32 0
  %159 = load ptr, ptr %158, align 8, !tbaa !47
  %160 = getelementptr inbounds nuw %struct.jpeg_error_mgr, ptr %159, i32 0, i32 6
  %161 = getelementptr inbounds [8 x i32], ptr %160, i64 0, i64 0
  store i32 %156, ptr %161, align 4, !tbaa !50
  %162 = load ptr, ptr %5, align 8, !tbaa !3
  %163 = getelementptr inbounds nuw %struct.jpeg_decompress_struct, ptr %162, i32 0, i32 0
  %164 = load ptr, ptr %163, align 8, !tbaa !47
  %165 = getelementptr inbounds nuw %struct.jpeg_error_mgr, ptr %164, i32 0, i32 0
  %166 = load ptr, ptr %165, align 8, !tbaa !51
  %167 = load ptr, ptr %5, align 8, !tbaa !3
  call void %166(ptr noundef %167)
  br label %168

168:                                              ; preds = %149, %142
  %169 = load ptr, ptr %5, align 8, !tbaa !3
  %170 = getelementptr inbounds nuw %struct.jpeg_decompress_struct, ptr %169, i32 0, i32 78
  %171 = load ptr, ptr %170, align 8, !tbaa !59
  %172 = getelementptr inbounds nuw %struct.jpeg_d_main_controller, ptr %171, i32 0, i32 1
  %173 = load ptr, ptr %172, align 8, !tbaa !60
  %174 = load ptr, ptr %5, align 8, !tbaa !3
  %175 = load ptr, ptr %6, align 8, !tbaa !95
  %176 = load i32, ptr %7, align 4, !tbaa !41
  call void %173(ptr noundef %174, ptr noundef %175, ptr noundef %8, i32 noundef %176)
  %177 = load i32, ptr %8, align 4, !tbaa !41
  %178 = load ptr, ptr %5, align 8, !tbaa !3
  %179 = getelementptr inbounds nuw %struct.jpeg_decompress_struct, ptr %178, i32 0, i32 34
  %180 = load i32, ptr %179, align 8, !tbaa !55
  %181 = add i32 %180, %177
  store i32 %181, ptr %179, align 8, !tbaa !55
  %182 = load i32, ptr %8, align 4, !tbaa !41
  store i32 %182, ptr %4, align 4
  store i32 1, ptr %9, align 4
  br label %183

183:                                              ; preds = %168, %103
  call void @llvm.lifetime.end.p0(i64 4, ptr %8) #4
  %184 = load i32, ptr %4, align 4
  ret i32 %184
}