; Function Attrs: nounwind uwtable
define i32 @jpeg_read_scanlines(ptr noundef %0, ptr noundef %1, i32 noundef %2) local_unnamed_addr #0 {
  %4 = alloca i32, align 4
  call void @llvm.lifetime.start.p0(i64 4, ptr nonnull %4) #5
  %5 = getelementptr inbounds nuw i8, ptr %0, i64 544
  %6 = load ptr, ptr %5, align 8, !tbaa !49
  %7 = getelementptr inbounds nuw i8, ptr %6, i64 20
  %8 = load i32, ptr %7, align 4, !tbaa !66
  %.not = icmp eq i32 %8, 0
  %9 = getelementptr inbounds nuw i8, ptr %0, i64 296
  %10 = load i32, ptr %9, align 8, !tbaa !55
  br i1 %.not, label %13, label %11

11:                                               ; preds = %3
  %12 = add i32 %10, -9
  %or.cond = icmp ult i32 %12, -7
  br i1 %or.cond, label %.sink.split, label %19

13:                                               ; preds = %3
  %.not46 = icmp eq i32 %10, 8
  br i1 %.not46, label %19, label %.sink.split

.sink.split:                                      ; preds = %13, %11
  %14 = load ptr, ptr %0, align 8, !tbaa !44
  %15 = getelementptr inbounds nuw i8, ptr %14, i64 40
  store i32 15, ptr %15, align 8, !tbaa !45
  %16 = getelementptr inbounds nuw i8, ptr %14, i64 44
  store i32 %10, ptr %16, align 4, !tbaa !47
  %17 = load ptr, ptr %0, align 8, !tbaa !44
  %18 = load ptr, ptr %17, align 8, !tbaa !48
  tail call void %18(ptr noundef nonnull %0) #5
  br label %19

19:                                               ; preds = %.sink.split, %11, %13
  %20 = getelementptr inbounds nuw i8, ptr %0, i64 36
  %21 = load i32, ptr %20, align 4, !tbaa !3
  %.not47 = icmp eq i32 %21, 205
  br i1 %.not47, label %28, label %22

22:                                               ; preds = %19
  %23 = load ptr, ptr %0, align 8, !tbaa !44
  %24 = getelementptr inbounds nuw i8, ptr %23, i64 40
  store i32 20, ptr %24, align 8, !tbaa !45
  %25 = getelementptr inbounds nuw i8, ptr %23, i64 44
  store i32 %21, ptr %25, align 4, !tbaa !47
  %26 = load ptr, ptr %0, align 8, !tbaa !44
  %27 = load ptr, ptr %26, align 8, !tbaa !48
  tail call void %27(ptr noundef nonnull %0) #5
  br label %28

28:                                               ; preds = %22, %19
  %29 = getelementptr inbounds nuw i8, ptr %0, i64 168
  %30 = load i32, ptr %29, align 8, !tbaa !52
  %31 = getelementptr inbounds nuw i8, ptr %0, i64 140
  %32 = load i32, ptr %31, align 4, !tbaa !54
  %.not48 = icmp ult i32 %30, %32
  br i1 %.not48, label %38, label %33

33:                                               ; preds = %28
  %34 = load ptr, ptr %0, align 8, !tbaa !44
  %35 = getelementptr inbounds nuw i8, ptr %34, i64 40
  store i32 123, ptr %35, align 8, !tbaa !45
  %36 = getelementptr inbounds nuw i8, ptr %34, i64 8
  %37 = load ptr, ptr %36, align 8, !tbaa !91
  tail call void %37(ptr noundef nonnull %0, i32 noundef -1) #5
  br label %66

38:                                               ; preds = %28
  %39 = getelementptr inbounds nuw i8, ptr %0, i64 16
  %40 = load ptr, ptr %39, align 8, !tbaa !34
  %.not49 = icmp eq ptr %40, null
  br i1 %.not49, label %47, label %41

41:                                               ; preds = %38
  %42 = zext i32 %30 to i64
  %43 = getelementptr inbounds nuw i8, ptr %40, i64 8
  store i64 %42, ptr %43, align 8, !tbaa !39
  %44 = zext i32 %32 to i64
  %45 = getelementptr inbounds nuw i8, ptr %40, i64 16
  store i64 %44, ptr %45, align 8, !tbaa !40
  %46 = load ptr, ptr %40, align 8, !tbaa !35
  tail call void %46(ptr noundef nonnull %0) #5
  br label %47

47:                                               ; preds = %41, %38
  store i32 0, ptr %4, align 4, !tbaa !67
  %48 = getelementptr inbounds nuw i8, ptr %0, i64 552
  %49 = load ptr, ptr %48, align 8, !tbaa !56
  %50 = getelementptr inbounds nuw i8, ptr %49, i64 8
  %51 = load ptr, ptr %50, align 8, !tbaa !57
  %52 = icmp eq ptr %51, null
  br i1 %52, label %53, label %61

53:                                               ; preds = %47
  %54 = load ptr, ptr %0, align 8, !tbaa !44
  %55 = getelementptr inbounds nuw i8, ptr %54, i64 40
  store i32 15, ptr %55, align 8, !tbaa !45
  %56 = getelementptr inbounds nuw i8, ptr %0, i64 296
  %57 = load i32, ptr %56, align 8, !tbaa !55
  %58 = getelementptr inbounds nuw i8, ptr %54, i64 44
  store i32 %57, ptr %58, align 4, !tbaa !47
  %59 = load ptr, ptr %0, align 8, !tbaa !44
  %60 = load ptr, ptr %59, align 8, !tbaa !48
  tail call void %60(ptr noundef nonnull %0) #5
  %.pre = load ptr, ptr %48, align 8, !tbaa !56
  %.phi.trans.insert = getelementptr inbounds nuw i8, ptr %.pre, i64 8
  %.pre50 = load ptr, ptr %.phi.trans.insert, align 8, !tbaa !57
  br label %61

61:                                               ; preds = %53, %47
  %62 = phi ptr [ %.pre50, %53 ], [ %51, %47 ]
  call void %62(ptr noundef nonnull %0, ptr noundef %1, ptr noundef nonnull %4, i32 noundef %2) #5
  %63 = load i32, ptr %4, align 4, !tbaa !67
  %64 = load i32, ptr %29, align 8, !tbaa !52
  %65 = add i32 %64, %63
  store i32 %65, ptr %29, align 8, !tbaa !52
  br label %66

66:                                               ; preds = %61, %33
  %.0 = phi i32 [ 0, %33 ], [ %63, %61 ]
  call void @llvm.lifetime.end.p0(i64 4, ptr nonnull %4) #5
  ret i32 %.0
}